; Function Attrs: nofree norecurse nosync nounwind memory(argmem: read) uwtable
define internal fastcc range(i32 0, 2) i32 @mpd_coeff_isallnine(i64 %.24.val, ptr readonly captures(none) %.40.val) unnamed_addr #19 {
  %1 = getelementptr i64, ptr %.40.val, i64 %.24.val
  %2 = getelementptr i8, ptr %1, i64 -8
  %3 = load i64, ptr %2, align 8, !tbaa !3
  %4 = load i64, ptr getelementptr (i8, ptr @mpd_pow10, i64 72), align 8, !tbaa !3
  %5 = icmp ult i64 %3, %4
  br i1 %5, label %6, label %34

6:                                                ; preds = %0
  %7 = load i64, ptr getelementptr (i8, ptr @mpd_pow10, i64 32), align 8, !tbaa !3
  %8 = icmp ult i64 %3, %7
  br i1 %8, label %9, label %20

9:                                                ; preds = %6
  %10 = load i64, ptr getelementptr (i8, ptr @mpd_pow10, i64 16), align 8, !tbaa !3
  %11 = icmp ult i64 %3, %10
  br i1 %11, label %12, label %16

12:                                               ; preds = %9
  %13 = load i64, ptr getelementptr (i8, ptr @mpd_pow10, i64 8), align 8, !tbaa !3
  %14 = icmp ult i64 %3, %13
  %15 = select i1 %14, i64 1, i64 2
  br label %mpd_word_isallnine.exit

16:                                               ; preds = %9
  %17 = load i64, ptr getelementptr (i8, ptr @mpd_pow10, i64 24), align 8, !tbaa !3
  %18 = icmp ult i64 %3, %17
  %19 = select i1 %18, i64 3, i64 4
  br label %mpd_word_isallnine.exit

20:                                               ; preds = %6
  %21 = load i64, ptr getelementptr (i8, ptr @mpd_pow10, i64 48), align 8, !tbaa !3
  %22 = icmp ult i64 %3, %21
  br i1 %22, label %23, label %27

23:                                               ; preds = %20
  %24 = load i64, ptr getelementptr (i8, ptr @mpd_pow10, i64 40), align 8, !tbaa !3
  %25 = icmp ult i64 %3, %24
  %26 = select i1 %25, i64 5, i64 6
  br label %mpd_word_isallnine.exit

27:                                               ; preds = %20
  %28 = load i64, ptr getelementptr (i8, ptr @mpd_pow10, i64 64), align 8, !tbaa !3
  %29 = icmp ult i64 %3, %28
  br i1 %29, label %30, label %mpd_word_isallnine.exit

30:                                               ; preds = %27
  %31 = load i64, ptr getelementptr (i8, ptr @mpd_pow10, i64 56), align 8, !tbaa !3
  %32 = icmp ult i64 %3, %31
  %33 = select i1 %32, i64 7, i64 8
  br label %mpd_word_isallnine.exit

34:                                               ; preds = %0
  %35 = load i64, ptr getelementptr (i8, ptr @mpd_pow10, i64 112), align 8, !tbaa !3
  %36 = icmp ult i64 %3, %35
  br i1 %36, label %37, label %51

37:                                               ; preds = %34
  %38 = load i64, ptr getelementptr (i8, ptr @mpd_pow10, i64 88), align 8, !tbaa !3
  %39 = icmp ult i64 %3, %38
  br i1 %39, label %40, label %44

40:                                               ; preds = %37
  %41 = load i64, ptr getelementptr (i8, ptr @mpd_pow10, i64 80), align 8, !tbaa !3
  %42 = icmp ult i64 %3, %41
  %43 = select i1 %42, i64 10, i64 11
  br label %mpd_word_isallnine.exit

44:                                               ; preds = %37
  %45 = load i64, ptr getelementptr (i8, ptr @mpd_pow10, i64 104), align 8, !tbaa !3
  %46 = icmp ult i64 %3, %45
  br i1 %46, label %47, label %mpd_word_isallnine.exit

47:                                               ; preds = %44
  %48 = load i64, ptr getelementptr (i8, ptr @mpd_pow10, i64 96), align 8, !tbaa !3
  %49 = icmp ult i64 %3, %48
  %50 = select i1 %49, i64 12, i64 13
  br label %mpd_word_isallnine.exit

51:                                               ; preds = %34
  %52 = load i64, ptr getelementptr (i8, ptr @mpd_pow10, i64 144), align 8, !tbaa !3
  %53 = icmp ult i64 %3, %52
  br i1 %53, label %54, label %65

54:                                               ; preds = %51
  %55 = load i64, ptr getelementptr (i8, ptr @mpd_pow10, i64 128), align 8, !tbaa !3
  %56 = icmp ult i64 %3, %55
  br i1 %56, label %57, label %61

57:                                               ; preds = %54
  %58 = load i64, ptr getelementptr (i8, ptr @mpd_pow10, i64 120), align 8, !tbaa !3
  %59 = icmp ult i64 %3, %58
  %60 = select i1 %59, i64 15, i64 16
  br label %mpd_word_isallnine.exit

61:                                               ; preds = %54
  %62 = load i64, ptr getelementptr (i8, ptr @mpd_pow10, i64 136), align 8, !tbaa !3
  %63 = icmp ult i64 %3, %62
  %64 = select i1 %63, i64 17, i64 18
  br label %mpd_word_isallnine.exit

65:                                               ; preds = %51
  %66 = load i64, ptr getelementptr (i8, ptr @mpd_pow10, i64 152), align 8, !tbaa !3
  %67 = icmp ult i64 %3, %66
  %68 = select i1 %67, i64 19, i64 20
  br label %mpd_word_isallnine.exit

mpd_word_isallnine.exit:                          ; preds = %12, %16, %23, %27, %30, %40, %44, %47, %57, %61, %65
  %.0.i.i = phi i64 [ %15, %12 ], [ %19, %16 ], [ %26, %23 ], [ %33, %30 ], [ %43, %40 ], [ %50, %47 ], [ %60, %57 ], [ %64, %61 ], [ %68, %65 ], [ 9, %27 ], [ 14, %44 ]
  %69 = getelementptr [0 x i64], ptr @mpd_pow10, i64 0, i64 %.0.i.i
  %70 = load i64, ptr %69, align 8, !tbaa !3
  %71 = add i64 %70, -1
  %.not = icmp eq i64 %3, %71
  br i1 %.not, label %72, label %_mpd_isallnine.exit

72:                                               ; preds = %mpd_word_isallnine.exit
  %73 = add i64 %.24.val, -1
  br label %74

74:                                               ; preds = %77, %72
  %.0.i = phi i64 [ %73, %72 ], [ %75, %77 ]
  %75 = add i64 %.0.i, -1
  %76 = icmp sgt i64 %75, -1
  br i1 %76, label %77, label %_mpd_isallnine.exit

77:                                               ; preds = %74
  %78 = getelementptr i64, ptr %.40.val, i64 %75
  %79 = load i64, ptr %78, align 8, !tbaa !3
  %.not.i = icmp eq i64 %79, -8446744073709551617
  br i1 %.not.i, label %74, label %_mpd_isallnine.exit, !llvm.loop !72

_mpd_isallnine.exit:                              ; preds = %77, %74, %mpd_word_isallnine.exit
  %.0 = phi i32 [ 0, %mpd_word_isallnine.exit ], [ 0, %77 ], [ 1, %74 ]
  ret i32 %.0
}